; Function Attrs: mustprogress nounwind uwtable
define hidden void @_ZN7datalog3tab7cleanupEv(ptr noundef nonnull readonly align 8 captures(none) dereferenceable(56) %0) unnamed_addr #4 align 2 personality ptr @__gxx_personality_v0 {
  %2 = getelementptr inbounds nuw i8, ptr %0, i64 48
  %3 = load ptr, ptr %2, align 8, !tbaa !213
  %4 = getelementptr inbounds nuw i8, ptr %3, i64 3008
  %5 = load ptr, ptr %4, align 8, !tbaa !322
  %.not.i.i = icmp eq ptr %5, null
  br i1 %.not.i.i, label %_ZN7datalog3tab3imp7cleanupEv.exit, label %_ZNK6vectorI3refIN2tb6clauseEELb1EjE4sizeEv.exit.i.i.i

_ZNK6vectorI3refIN2tb6clauseEELb1EjE4sizeEv.exit.i.i.i: ; preds = %1
  %6 = getelementptr inbounds i8, ptr %5, i64 -4
  %7 = load i32, ptr %6, align 4, !tbaa !327
  %.not6.i.i.i.i.i.i = icmp eq i32 %7, 0
  br i1 %.not6.i.i.i.i.i.i, label %_ZN6vectorI3refIN2tb6clauseEELb1EjE16destroy_elementsEv.exit.i.i, label %.lr.ph.i.i.i.i.i.i

.lr.ph.i.i.i.i.i.i:                               ; preds = %_ZNK6vectorI3refIN2tb6clauseEELb1EjE4sizeEv.exit.i.i.i, %_ZSt8_DestroyI3refIN2tb6clauseEEEvPT_.exit.i.i.i.i.i.i
  %.08.i.i.i.i.i.i = phi i32 [ %19, %_ZSt8_DestroyI3refIN2tb6clauseEEEvPT_.exit.i.i.i.i.i.i ], [ %7, %_ZNK6vectorI3refIN2tb6clauseEELb1EjE4sizeEv.exit.i.i.i ]
  %.047.i.i.i.i.i.i = phi ptr [ %18, %_ZSt8_DestroyI3refIN2tb6clauseEEEvPT_.exit.i.i.i.i.i.i ], [ %5, %_ZNK6vectorI3refIN2tb6clauseEELb1EjE4sizeEv.exit.i.i.i ]
  %8 = load ptr, ptr %.047.i.i.i.i.i.i, align 8, !tbaa !328
  %.not.i.i.i.i.i.i.i.i.i.i = icmp eq ptr %8, null
  br i1 %.not.i.i.i.i.i.i.i.i.i.i, label %_ZSt8_DestroyI3refIN2tb6clauseEEEvPT_.exit.i.i.i.i.i.i, label %9

9:                                                ; preds = %.lr.ph.i.i.i.i.i.i
  %10 = getelementptr inbounds nuw i8, ptr %8, i64 76
  %11 = load i32, ptr %10, align 4, !tbaa !329
  %12 = add i32 %11, -1
  store i32 %12, ptr %10, align 4, !tbaa !329
  %13 = icmp eq i32 %12, 0
  br i1 %13, label %14, label %_ZSt8_DestroyI3refIN2tb6clauseEEEvPT_.exit.i.i.i.i.i.i

14:                                               ; preds = %9
  tail call void @_ZN2tb6clauseD2Ev(ptr noundef nonnull align 8 dereferenceable(80) %8) #25
  invoke void @_ZN6memory10deallocateEPv(ptr noundef nonnull align 8 dereferenceable(80) %8)
          to label %_ZSt8_DestroyI3refIN2tb6clauseEEEvPT_.exit.i.i.i.i.i.i unwind label %15

15:                                               ; preds = %14
  %16 = landingpad { ptr, i32 }
          catch ptr null
  %17 = extractvalue { ptr, i32 } %16, 0
  tail call void @__clang_call_terminate(ptr %17) #26
  unreachable

_ZSt8_DestroyI3refIN2tb6clauseEEEvPT_.exit.i.i.i.i.i.i: ; preds = %14, %9, %.lr.ph.i.i.i.i.i.i
  %18 = getelementptr inbounds nuw i8, ptr %.047.i.i.i.i.i.i, i64 8
  %19 = add i32 %.08.i.i.i.i.i.i, -1
  %.not.i.i.i.i.i.i = icmp eq i32 %19, 0
  br i1 %.not.i.i.i.i.i.i, label %_ZN6vectorI3refIN2tb6clauseEELb1EjE16destroy_elementsEv.exit.loopexit.i.i, label %.lr.ph.i.i.i.i.i.i, !llvm.loop !331

_ZN6vectorI3refIN2tb6clauseEELb1EjE16destroy_elementsEv.exit.loopexit.i.i: ; preds = %_ZSt8_DestroyI3refIN2tb6clauseEEEvPT_.exit.i.i.i.i.i.i
  %.pre.i.i = load ptr, ptr %4, align 8, !tbaa !322
  br label %_ZN6vectorI3refIN2tb6clauseEELb1EjE16destroy_elementsEv.exit.i.i

_ZN6vectorI3refIN2tb6clauseEELb1EjE16destroy_elementsEv.exit.i.i: ; preds = %_ZN6vectorI3refIN2tb6clauseEELb1EjE16destroy_elementsEv.exit.loopexit.i.i, %_ZNK6vectorI3refIN2tb6clauseEELb1EjE4sizeEv.exit.i.i.i
  %20 = phi ptr [ %.pre.i.i, %_ZN6vectorI3refIN2tb6clauseEELb1EjE16destroy_elementsEv.exit.loopexit.i.i ], [ %5, %_ZNK6vectorI3refIN2tb6clauseEELb1EjE4sizeEv.exit.i.i.i ]
  %21 = getelementptr inbounds i8, ptr %20, i64 -4
  store i32 0, ptr %21, align 4, !tbaa !327
  br label %_ZN7datalog3tab3imp7cleanupEv.exit

_ZN7datalog3tab3imp7cleanupEv.exit:               ; preds = %1, %_ZN6vectorI3refIN2tb6clauseEELb1EjE16destroy_elementsEv.exit.i.i
  ret void
}